; Function Attrs: mustprogress nofree norecurse nosync nounwind willreturn memory(argmem: write) uwtable
define hidden void @_ZN4cvc58internal6theory8RewriterC2EPNS0_11NodeManagerE(ptr noundef nonnull align 8 dereferenceable(216) initializes((0, 16), (128, 160)) %0, ptr noundef %1) unnamed_addr #7 align 2 personality ptr @__gxx_personality_v0 {
  store ptr %1, ptr %0, align 8, !tbaa !361
  %3 = getelementptr inbounds nuw i8, ptr %0, i64 8
  store ptr null, ptr %3, align 8, !tbaa !378
  %4 = getelementptr inbounds nuw i8, ptr %0, i64 128
  %5 = getelementptr inbounds nuw i8, ptr %0, i64 160
  %6 = getelementptr inbounds nuw i8, ptr %0, i64 208
  tail call void @llvm.memset.p0.i64(ptr noundef nonnull align 8 dereferenceable(32) %4, i8 0, i64 32, i1 false)
  store ptr %6, ptr %5, align 8, !tbaa !379
  %7 = getelementptr inbounds nuw i8, ptr %0, i64 168
  store i64 1, ptr %7, align 8, !tbaa !380
  %8 = getelementptr inbounds nuw i8, ptr %0, i64 176
  %9 = getelementptr inbounds nuw i8, ptr %0, i64 192
  tail call void @llvm.memset.p0.i64(ptr noundef nonnull align 8 dereferenceable(16) %8, i8 0, i64 16, i1 false)
  store float 1.000000e+00, ptr %9, align 8, !tbaa !381
  %10 = getelementptr inbounds nuw i8, ptr %0, i64 200
  tail call void @llvm.memset.p0.i64(ptr noundef nonnull align 8 dereferenceable(16) %10, i8 0, i64 16, i1 false)
  ret void
}